; Function Attrs: nounwind uwtable
define i64 @zend_vspprintf(ptr noundef writeonly %0, i64 noundef %1, ptr noundef %2, ptr noundef %3) local_unnamed_addr #0 {
  %5 = alloca %struct.smart_string, align 8
  call void @llvm.memset.p0.i64(ptr noundef nonnull align 8 dereferenceable(24) %5, i8 0, i64 24, i1 false)
  %.not = icmp eq ptr %0, null
  br i1 %.not, label %22, label %6

6:                                                ; preds = %4
  %7 = load ptr, ptr @zend_printf_to_smart_string, align 8
  call void %7(ptr noundef nonnull %5, ptr noundef %2, ptr noundef %3) #30
  %.not15 = icmp eq i64 %1, 0
  br i1 %.not15, label %13, label %8

8:                                                ; preds = %6
  %9 = getelementptr inbounds i8, ptr %5, i64 8
  %10 = load i64, ptr %9, align 8
  %11 = icmp ugt i64 %10, %1
  br i1 %11, label %12, label %13

12:                                               ; preds = %8
  store i64 %1, ptr %9, align 8
  br label %13

13:                                               ; preds = %12, %8, %6
  %14 = load ptr, ptr %5, align 8
  %.not16 = icmp eq ptr %14, null
  br i1 %.not16, label %.thread, label %15

15:                                               ; preds = %13
  %16 = getelementptr inbounds i8, ptr %5, i64 8
  %17 = load i64, ptr %16, align 8
  %18 = getelementptr inbounds i8, ptr %14, i64 %17
  store i8 0, ptr %18, align 1
  %.pr = load ptr, ptr %5, align 8
  %.not17 = icmp eq ptr %.pr, null
  br i1 %.not17, label %.thread, label %19

19:                                               ; preds = %15
  store ptr %.pr, ptr %0, align 8
  %20 = load i64, ptr %16, align 8
  br label %22

.thread:                                          ; preds = %13, %15
  %21 = call noalias ptr @_estrndup(ptr noundef nonnull @.str, i64 noundef 0) #30
  store ptr %21, ptr %0, align 8
  br label %22

22:                                               ; preds = %4, %.thread, %19
  %.0 = phi i64 [ %20, %19 ], [ 0, %.thread ], [ 0, %4 ]
  ret i64 %.0
}